target datalayout = "e-m:e-p270:32:32-p271:32:32-p272:64:64-i64:64-i128:128-f80:128-n8:16:32:64-S128"
target triple = "x86_64-pc-linux-gnu"

; Function Attrs: nounwind uwtable
define internal i32 @ml_dsa_match(ptr noundef %0, ptr noundef %1, i32 noundef %2) #0 {
  %4 = alloca i32, align 4
  %5 = alloca ptr, align 8
  %6 = alloca ptr, align 8
  %7 = alloca i32, align 4
  %8 = alloca ptr, align 8
  %9 = alloca ptr, align 8
  %10 = alloca i32, align 4
  store ptr %0, ptr %5, align 8, !tbaa !3
  store ptr %1, ptr %6, align 8, !tbaa !3
  store i32 %2, ptr %7, align 4, !tbaa !7
  call void @llvm.lifetime.start.p0(i64 8, ptr %8) #5
  %11 = load ptr, ptr %5, align 8, !tbaa !3
  store ptr %11, ptr %8, align 8, !tbaa !9
  call void @llvm.lifetime.start.p0(i64 8, ptr %9) #5
  %12 = load ptr, ptr %6, align 8, !tbaa !3
  store ptr %12, ptr %9, align 8, !tbaa !9
  %13 = call i32 @ossl_prov_is_running()
  %14 = icmp ne i32 %13, 0
  br i1 %14, label %16, label %15

15:                                               ; preds = %3
  store i32 0, ptr %4, align 4
  store i32 1, ptr %10, align 4
  br label %28

16:                                               ; preds = %3
  %17 = load ptr, ptr %8, align 8, !tbaa !9
  %18 = icmp eq ptr %17, null
  br i1 %18, label %22, label %19

19:                                               ; preds = %16
  %20 = load ptr, ptr %9, align 8, !tbaa !9
  %21 = icmp eq ptr %20, null
  br i1 %21, label %22, label %23

22:                                               ; preds = %19, %16
  store i32 0, ptr %4, align 4
  store i32 1, ptr %10, align 4
  br label %28

23:                                               ; preds = %19
  %24 = load ptr, ptr %8, align 8, !tbaa !9
  %25 = load ptr, ptr %9, align 8, !tbaa !9
  %26 = load i32, ptr %7, align 4, !tbaa !7
  %27 = call i32 @ossl_ml_dsa_key_equal(ptr noundef %24, ptr noundef %25, i32 noundef %26)
  store i32 %27, ptr %4, align 4
  store i32 1, ptr %10, align 4
  br label %28

28:                                               ; preds = %23, %22, %15
  call void @llvm.lifetime.end.p0(i64 8, ptr %9) #5
  call void @llvm.lifetime.end.p0(i64 8, ptr %8) #5
  %29 = load i32, ptr %4, align 4
  ret i32 %29
}