; Function Attrs: nounwind uwtable
define internal i32 @ml_dsa_match(ptr noundef %0, ptr noundef %1, i32 noundef %2) #0 {
  %4 = tail call i32 @ossl_prov_is_running() #6
  %.not = icmp eq i32 %4, 0
  br i1 %.not, label %10, label %5

5:                                                ; preds = %3
  %6 = icmp eq ptr %0, null
  %7 = icmp eq ptr %1, null
  %or.cond = or i1 %6, %7
  br i1 %or.cond, label %10, label %8

8:                                                ; preds = %5
  %9 = tail call i32 @ossl_ml_dsa_key_equal(ptr noundef nonnull %0, ptr noundef nonnull %1, i32 noundef %2) #6
  br label %10

10:                                               ; preds = %5, %3, %8
  %.0 = phi i32 [ %9, %8 ], [ 0, %3 ], [ 0, %5 ]
  ret i32 %.0
}